; Function Attrs: mustprogress nounwind uwtable
define internal fastcc void @_ZN12_GLOBAL__N_114CXXNameMangler10mangleTypeEPKN5clang23DependentSizedArrayTypeE(ptr noundef nonnull align 8 dereferenceable(280) %0, ptr nocapture noundef readonly %1) unnamed_addr #0 align 2 {
  %3 = getelementptr inbounds nuw i8, ptr %0, i64 8
  %4 = load ptr, ptr %3, align 8
  %5 = getelementptr inbounds nuw i8, ptr %4, i64 32
  %6 = load ptr, ptr %5, align 8
  %7 = getelementptr inbounds nuw i8, ptr %4, i64 24
  %8 = load ptr, ptr %7, align 8
  %.not.i = icmp ult ptr %6, %8
  br i1 %.not.i, label %11, label %9

9:                                                ; preds = %2
  %10 = tail call noundef nonnull align 8 dereferenceable(48) ptr @_ZN4llvm11raw_ostream5writeEh(ptr noundef nonnull align 8 dereferenceable(48) %4, i8 noundef zeroext 65) #24
  br label %_ZN4llvm11raw_ostreamlsEc.exit

11:                                               ; preds = %2
  %12 = getelementptr inbounds i8, ptr %6, i64 1
  store ptr %12, ptr %5, align 8
  store i8 65, ptr %6, align 1
  br label %_ZN4llvm11raw_ostreamlsEc.exit

_ZN4llvm11raw_ostreamlsEc.exit:                   ; preds = %9, %11
  %13 = getelementptr inbounds nuw i8, ptr %1, i64 40
  %14 = load ptr, ptr %13, align 8
  %.not = icmp eq ptr %14, null
  br i1 %.not, label %16, label %15

15:                                               ; preds = %_ZN4llvm11raw_ostreamlsEc.exit
  tail call fastcc void @_ZN12_GLOBAL__N_114CXXNameMangler16mangleExpressionEPKN5clang4ExprEjb(ptr noundef nonnull align 8 dereferenceable(280) %0, ptr noundef nonnull %14, i32 noundef -1, i1 noundef zeroext false)
  br label %16

16:                                               ; preds = %15, %_ZN4llvm11raw_ostreamlsEc.exit
  %17 = load ptr, ptr %3, align 8
  %18 = getelementptr inbounds nuw i8, ptr %17, i64 32
  %19 = load ptr, ptr %18, align 8
  %20 = getelementptr inbounds nuw i8, ptr %17, i64 24
  %21 = load ptr, ptr %20, align 8
  %.not.i4 = icmp ult ptr %19, %21
  br i1 %.not.i4, label %24, label %22

22:                                               ; preds = %16
  %23 = tail call noundef nonnull align 8 dereferenceable(48) ptr @_ZN4llvm11raw_ostream5writeEh(ptr noundef nonnull align 8 dereferenceable(48) %17, i8 noundef zeroext 95) #24
  br label %_ZN4llvm11raw_ostreamlsEc.exit6

24:                                               ; preds = %16
  %25 = getelementptr inbounds i8, ptr %19, i64 1
  store ptr %25, ptr %18, align 8
  store i8 95, ptr %19, align 1
  br label %_ZN4llvm11raw_ostreamlsEc.exit6

_ZN4llvm11raw_ostreamlsEc.exit6:                  ; preds = %22, %24
  %26 = getelementptr inbounds nuw i8, ptr %1, i64 32
  %.sroa.0.0.copyload.i = load i64, ptr %26, align 16
  tail call fastcc void @_ZN12_GLOBAL__N_114CXXNameMangler10mangleTypeEN5clang8QualTypeE(ptr noundef nonnull align 8 dereferenceable(280) %0, i64 %.sroa.0.0.copyload.i)
  ret void
}